target datalayout = "e-m:e-p270:32:32-p271:32:32-p272:64:64-i64:64-i128:128-f80:128-n8:16:32:64-S128"
target triple = "x86_64-pc-linux-gnu"

@hf_ecmp_tunnel_control = internal global i32 0, align 4
@hf_ecmp_tunnel_start_flag = internal global i32 0, align 4
@hf_ecmp_tunnel_end_flag = internal global i32 0, align 4
@hf_ecmp_tunnel_check_output_flag = internal global i32 0, align 4
@hf_ecmp_tunnel_size = internal global i32 0, align 4
@hf_ecmp_data = internal global i32 0, align 4

; Function Attrs: null_pointer_is_valid sspstrong uwtable
define internal void @tunnel_frame(i32 noundef %0, i1 noundef zeroext %1, ptr noundef %2, ptr noundef %3) #0 {
  %5 = alloca i32, align 4
  %6 = alloca i8, align 1
  %7 = alloca ptr, align 8
  %8 = alloca ptr, align 8
  store i32 %0, ptr %5, align 4
  %9 = zext i1 %1 to i8
  store i8 %9, ptr %6, align 1
  store ptr %2, ptr %7, align 8
  store ptr %3, ptr %8, align 8
  %10 = load ptr, ptr %8, align 8
  %11 = load i32, ptr @hf_ecmp_tunnel_control, align 4
  %12 = load ptr, ptr %7, align 8
  %13 = load i32, ptr %5, align 4
  %14 = call ptr @proto_tree_add_item(ptr noundef %10, i32 noundef %11, ptr noundef %12, i32 noundef %13, i32 noundef 1, i32 noundef 0)
  %15 = load ptr, ptr %8, align 8
  %16 = load i32, ptr @hf_ecmp_tunnel_start_flag, align 4
  %17 = load ptr, ptr %7, align 8
  %18 = load i32, ptr %5, align 4
  %19 = call ptr @proto_tree_add_item(ptr noundef %15, i32 noundef %16, ptr noundef %17, i32 noundef %18, i32 noundef 1, i32 noundef 0)
  %20 = load ptr, ptr %8, align 8
  %21 = load i32, ptr @hf_ecmp_tunnel_end_flag, align 4
  %22 = load ptr, ptr %7, align 8
  %23 = load i32, ptr %5, align 4
  %24 = call ptr @proto_tree_add_item(ptr noundef %20, i32 noundef %21, ptr noundef %22, i32 noundef %23, i32 noundef 1, i32 noundef 0)
  %25 = load i8, ptr %6, align 1, !range !6, !noundef !7
  %26 = trunc i8 %25 to i1
  br i1 %26, label %27, label %33

27:                                               ; preds = %4
  %28 = load ptr, ptr %8, align 8
  %29 = load i32, ptr @hf_ecmp_tunnel_check_output_flag, align 4
  %30 = load ptr, ptr %7, align 8
  %31 = load i32, ptr %5, align 4
  %32 = call ptr @proto_tree_add_item(ptr noundef %28, i32 noundef %29, ptr noundef %30, i32 noundef %31, i32 noundef 1, i32 noundef 0)
  br label %33

33:                                               ; preds = %27, %4
  %34 = load i32, ptr %5, align 4
  %35 = add i32 %34, 1
  store i32 %35, ptr %5, align 4
  %36 = load ptr, ptr %8, align 8
  %37 = load i32, ptr @hf_ecmp_tunnel_size, align 4
  %38 = load ptr, ptr %7, align 8
  %39 = load i32, ptr %5, align 4
  %40 = call ptr @proto_tree_add_item(ptr noundef %36, i32 noundef %37, ptr noundef %38, i32 noundef %39, i32 noundef 2, i32 noundef 0)
  %41 = load i32, ptr %5, align 4
  %42 = add i32 %41, 2
  store i32 %42, ptr %5, align 4
  %43 = load ptr, ptr %8, align 8
  %44 = load i32, ptr @hf_ecmp_data, align 4
  %45 = load ptr, ptr %7, align 8
  %46 = load i32, ptr %5, align 4
  %47 = load ptr, ptr %7, align 8
  %48 = load i32, ptr %5, align 4
  %49 = call i32 @tvb_reported_length_remaining(ptr noundef %47, i32 noundef %48)
  %50 = call ptr @proto_tree_add_item(ptr noundef %43, i32 noundef %44, ptr noundef %45, i32 noundef %46, i32 noundef %49, i32 noundef 0)
  ret void
}