; Function Attrs: null_pointer_is_valid sspstrong uwtable
define internal fastcc void @tunnel_frame(i32 noundef %0, i1 noundef zeroext %1, ptr noundef %2, ptr noundef %3) unnamed_addr #0 {
  %5 = load i32, ptr @hf_ecmp_tunnel_control, align 4
  %6 = tail call ptr @proto_tree_add_item(ptr noundef %3, i32 noundef %5, ptr noundef %2, i32 noundef %0, i32 noundef 1, i32 noundef 0)
  %7 = load i32, ptr @hf_ecmp_tunnel_start_flag, align 4
  %8 = tail call ptr @proto_tree_add_item(ptr noundef %3, i32 noundef %7, ptr noundef %2, i32 noundef %0, i32 noundef 1, i32 noundef 0)
  %9 = load i32, ptr @hf_ecmp_tunnel_end_flag, align 4
  %10 = tail call ptr @proto_tree_add_item(ptr noundef %3, i32 noundef %9, ptr noundef %2, i32 noundef %0, i32 noundef 1, i32 noundef 0)
  br i1 %1, label %11, label %14

11:                                               ; preds = %4
  %12 = load i32, ptr @hf_ecmp_tunnel_check_output_flag, align 4
  %13 = tail call ptr @proto_tree_add_item(ptr noundef %3, i32 noundef %12, ptr noundef %2, i32 noundef %0, i32 noundef 1, i32 noundef 0)
  br label %14

14:                                               ; preds = %11, %4
  %15 = add i32 %0, 1
  %16 = load i32, ptr @hf_ecmp_tunnel_size, align 4
  %17 = tail call ptr @proto_tree_add_item(ptr noundef %3, i32 noundef %16, ptr noundef %2, i32 noundef %15, i32 noundef 2, i32 noundef 0)
  %18 = add i32 %0, 3
  %19 = load i32, ptr @hf_ecmp_data, align 4
  %20 = tail call i32 @tvb_reported_length_remaining(ptr noundef %2, i32 noundef %18)
  %21 = tail call ptr @proto_tree_add_item(ptr noundef %3, i32 noundef %19, ptr noundef %2, i32 noundef %18, i32 noundef %20, i32 noundef 0)
  ret void
}